target datalayout = "e-m:e-p270:32:32-p271:32:32-p272:64:64-i64:64-i128:128-f80:128-n8:16:32:64-S128"
target triple = "x86_64-pc-linux-gnu"

%struct._object = type { %union.anon, ptr }
%union.anon = type { i64 }
%struct.anon.0 = type { i32, i32 }

@.str.16 = private unnamed_addr constant [8 x i8] c"__doc__\00", align 1

; Function Attrs: alwaysinline nounwind uwtable
define internal i32 @_Py_IsImmortal(ptr noundef %0) #3 {
  %2 = alloca ptr, align 8
  store ptr %0, ptr %2, align 8, !tbaa !9
  %3 = load ptr, ptr %2, align 8, !tbaa !9
  %4 = getelementptr inbounds nuw %struct._object, ptr %3, i32 0, i32 0
  %5 = getelementptr inbounds nuw %struct.anon.0, ptr %4, i32 0, i32 0
  %6 = load i32, ptr %5, align 8, !tbaa !36
  %7 = icmp slt i32 %6, 0
  %8 = zext i1 %7 to i32
  ret i32 %8
}

; Function Attrs: inlinehint nounwind uwtable
define internal void @Py_XDECREF(ptr noundef %0) #2 {
  %2 = alloca ptr, align 8
  store ptr %0, ptr %2, align 8, !tbaa !9
  %3 = load ptr, ptr %2, align 8, !tbaa !9
  %4 = icmp ne ptr %3, null
  br i1 %4, label %5, label %7

5:                                                ; preds = %1
  %6 = load ptr, ptr %2, align 8, !tbaa !9
  call void @Py_DECREF(ptr noundef %6)
  br label %7

7:                                                ; preds = %5, %1
  ret void
}

; Function Attrs: alwaysinline nounwind uwtable
define internal void @Py_DECREF(ptr noundef %0) #3 {
  %2 = alloca ptr, align 8
  store ptr %0, ptr %2, align 8, !tbaa !9
  %3 = load ptr, ptr %2, align 8, !tbaa !9
  %4 = call i32 @_Py_IsImmortal(ptr noundef %3)
  %5 = icmp ne i32 %4, 0
  br i1 %5, label %6, label %7

6:                                                ; preds = %1
  br label %16

7:                                                ; preds = %1
  %8 = load ptr, ptr %2, align 8, !tbaa !9
  %9 = getelementptr inbounds nuw %struct._object, ptr %8, i32 0, i32 0
  %10 = getelementptr inbounds nuw %struct.anon.0, ptr %9, i32 0, i32 0
  %11 = load i32, ptr %10, align 8, !tbaa !36
  %12 = add i32 %11, -1
  store i32 %12, ptr %10, align 8, !tbaa !36
  %13 = icmp eq i32 %12, 0
  br i1 %13, label %14, label %16

14:                                               ; preds = %7
  %15 = load ptr, ptr %2, align 8, !tbaa !9
  call void @_Py_Dealloc(ptr noundef %15)
  br label %16

16:                                               ; preds = %6, %14, %7
  ret void
}

; Function Attrs: nounwind uwtable
define dso_local ptr @PyErr_NewExceptionWithDoc(ptr noundef %0, ptr noundef %1, ptr noundef %2, ptr noundef %3) #0 {
  %5 = alloca ptr, align 8
  %6 = alloca ptr, align 8
  %7 = alloca ptr, align 8
  %8 = alloca ptr, align 8
  %9 = alloca ptr, align 8
  %10 = alloca i32, align 4
  %11 = alloca ptr, align 8
  %12 = alloca ptr, align 8
  %13 = alloca ptr, align 8
  %14 = alloca i32, align 4
  store ptr %0, ptr %6, align 8, !tbaa !38
  store ptr %1, ptr %7, align 8, !tbaa !38
  store ptr %2, ptr %8, align 8, !tbaa !9
  store ptr %3, ptr %9, align 8, !tbaa !9
  call void @llvm.lifetime.start.p0(i64 4, ptr %10) #13
  call void @llvm.lifetime.start.p0(i64 8, ptr %11) #13
  store ptr null, ptr %11, align 8, !tbaa !9
  call void @llvm.lifetime.start.p0(i64 8, ptr %12) #13
  store ptr null, ptr %12, align 8, !tbaa !9
  call void @llvm.lifetime.start.p0(i64 8, ptr %13) #13
  %15 = load ptr, ptr %9, align 8, !tbaa !9
  %16 = icmp eq ptr %15, null
  br i1 %16, label %17, label %23

17:                                               ; preds = %4
  %18 = call ptr @PyDict_New()
  store ptr %18, ptr %12, align 8, !tbaa !9
  store ptr %18, ptr %9, align 8, !tbaa !9
  %19 = load ptr, ptr %9, align 8, !tbaa !9
  %20 = icmp eq ptr %19, null
  br i1 %20, label %21, label %22

21:                                               ; preds = %17
  store ptr null, ptr %5, align 8
  store i32 1, ptr %14, align 4
  br label %49

22:                                               ; preds = %17
  br label %23

23:                                               ; preds = %22, %4
  %24 = load ptr, ptr %7, align 8, !tbaa !38
  %25 = icmp ne ptr %24, null
  br i1 %25, label %26, label %41

26:                                               ; preds = %23
  %27 = load ptr, ptr %7, align 8, !tbaa !38
  %28 = call ptr @PyUnicode_FromString(ptr noundef %27)
  store ptr %28, ptr %13, align 8, !tbaa !9
  %29 = load ptr, ptr %13, align 8, !tbaa !9
  %30 = icmp eq ptr %29, null
  br i1 %30, label %31, label %32

31:                                               ; preds = %26
  br label %46

32:                                               ; preds = %26
  %33 = load ptr, ptr %9, align 8, !tbaa !9
  %34 = load ptr, ptr %13, align 8, !tbaa !9
  %35 = call i32 @PyDict_SetItemString(ptr noundef %33, ptr noundef @.str.16, ptr noundef %34)
  store i32 %35, ptr %10, align 4, !tbaa !45
  %36 = load ptr, ptr %13, align 8, !tbaa !9
  call void @Py_DECREF(ptr noundef %36)
  %37 = load i32, ptr %10, align 4, !tbaa !45
  %38 = icmp slt i32 %37, 0
  br i1 %38, label %39, label %40

39:                                               ; preds = %32
  br label %46

40:                                               ; preds = %32
  br label %41

41:                                               ; preds = %40, %23
  %42 = load ptr, ptr %6, align 8, !tbaa !38
  %43 = load ptr, ptr %8, align 8, !tbaa !9
  %44 = load ptr, ptr %9, align 8, !tbaa !9
  %45 = call ptr @PyErr_NewException(ptr noundef %42, ptr noundef %43, ptr noundef %44)
  store ptr %45, ptr %11, align 8, !tbaa !9
  br label %46

46:                                               ; preds = %41, %39, %31
  %47 = load ptr, ptr %12, align 8, !tbaa !9
  call void @Py_XDECREF(ptr noundef %47)
  %48 = load ptr, ptr %11, align 8, !tbaa !9
  store ptr %48, ptr %5, align 8
  store i32 1, ptr %14, align 4
  br label %49

49:                                               ; preds = %46, %21
  call void @llvm.lifetime.end.p0(i64 8, ptr %13) #13
  call void @llvm.lifetime.end.p0(i64 8, ptr %12) #13
  call void @llvm.lifetime.end.p0(i64 8, ptr %11) #13
  call void @llvm.lifetime.end.p0(i64 4, ptr %10) #13
  %50 = load ptr, ptr %5, align 8
  ret ptr %50
}