; Function Attrs: nounwind uwtable
define dso_local ptr @PyErr_NewExceptionWithDoc(ptr noundef %0, ptr noundef %1, ptr noundef %2, ptr noundef %3) local_unnamed_addr #0 {
  %5 = icmp eq ptr %3, null
  br i1 %5, label %6, label %9

6:                                                ; preds = %4
  %7 = tail call ptr @PyDict_New() #17
  %8 = icmp eq ptr %7, null
  br i1 %8, label %Py_XDECREF.exit, label %9

9:                                                ; preds = %6, %4
  %.016 = phi ptr [ %7, %6 ], [ %3, %4 ]
  %.014 = phi ptr [ %7, %6 ], [ null, %4 ]
  %.not = icmp eq ptr %1, null
  br i1 %.not, label %21, label %10

10:                                               ; preds = %9
  %11 = tail call ptr @PyUnicode_FromString(ptr noundef nonnull %1) #17
  %12 = icmp eq ptr %11, null
  br i1 %12, label %23, label %13

13:                                               ; preds = %10
  %14 = tail call i32 @PyDict_SetItemString(ptr noundef nonnull %.016, ptr noundef nonnull @.str.16, ptr noundef nonnull %11) #17
  %15 = load i32, ptr %11, align 8, !tbaa !20
  %.not.i = icmp sgt i32 %15, -1
  br i1 %.not.i, label %16, label %Py_DECREF.exit

16:                                               ; preds = %13
  %17 = add nsw i32 %15, -1
  store i32 %17, ptr %11, align 8, !tbaa !20
  %18 = icmp eq i32 %17, 0
  br i1 %18, label %19, label %Py_DECREF.exit

19:                                               ; preds = %16
  tail call void @_Py_Dealloc(ptr noundef nonnull %11) #17
  br label %Py_DECREF.exit

Py_DECREF.exit:                                   ; preds = %13, %16, %19
  %20 = icmp slt i32 %14, 0
  br i1 %20, label %23, label %21

21:                                               ; preds = %Py_DECREF.exit, %9
  %22 = tail call ptr @PyErr_NewException(ptr noundef %0, ptr noundef %2, ptr noundef nonnull %.016)
  br label %23

23:                                               ; preds = %Py_DECREF.exit, %10, %21
  %.015 = phi ptr [ null, %10 ], [ null, %Py_DECREF.exit ], [ %22, %21 ]
  %.not.i21 = icmp eq ptr %.014, null
  br i1 %.not.i21, label %Py_XDECREF.exit, label %24

24:                                               ; preds = %23
  %25 = load i32, ptr %.014, align 8, !tbaa !20
  %.not.i.i = icmp sgt i32 %25, -1
  br i1 %.not.i.i, label %26, label %Py_XDECREF.exit

26:                                               ; preds = %24
  %27 = add nsw i32 %25, -1
  store i32 %27, ptr %.014, align 8, !tbaa !20
  %28 = icmp eq i32 %27, 0
  br i1 %28, label %29, label %Py_XDECREF.exit

29:                                               ; preds = %26
  tail call void @_Py_Dealloc(ptr noundef nonnull %.014) #17
  br label %Py_XDECREF.exit

Py_XDECREF.exit:                                  ; preds = %29, %26, %24, %23, %6
  %.0 = phi ptr [ null, %6 ], [ %.015, %23 ], [ %.015, %24 ], [ %.015, %26 ], [ %.015, %29 ]
  ret ptr %.0
}